target datalayout = "e-m:e-p270:32:32-p271:32:32-p272:64:64-i64:64-i128:128-f80:128-n8:16:32:64-S128"
target triple = "x86_64-pc-linux-gnu"

%struct.test_fixture = type { ptr, i32, ptr, ptr, ptr, ptr, i32 }

@.str.14 = private unnamed_addr constant [31 x i8] c"../openssl/test/cmp_vfy_test.c\00", align 1
@.str.44 = private unnamed_addr constant [17 x i8] c"test_verify_popo\00", align 1

; Function Attrs: nounwind uwtable
define internal void @tear_down(ptr noundef %0) #0 {
  %2 = alloca ptr, align 8
  store ptr %0, ptr %2, align 8, !tbaa !24
  %3 = load ptr, ptr %2, align 8, !tbaa !24
  %4 = getelementptr inbounds nuw %struct.test_fixture, ptr %3, i32 0, i32 3
  %5 = load ptr, ptr %4, align 8, !tbaa !31
  call void @OSSL_CMP_MSG_free(ptr noundef %5)
  %6 = load ptr, ptr %2, align 8, !tbaa !24
  %7 = getelementptr inbounds nuw %struct.test_fixture, ptr %6, i32 0, i32 2
  %8 = load ptr, ptr %7, align 8, !tbaa !32
  call void @OSSL_CMP_CTX_free(ptr noundef %8)
  %9 = load ptr, ptr %2, align 8, !tbaa !24
  call void @CRYPTO_free(ptr noundef %9, ptr noundef @.str.14, i32 noundef 47)
  ret void
}

; Function Attrs: nounwind uwtable
define internal i32 @test_verify_popo() #0 {
  %1 = alloca i32, align 4
  %2 = alloca ptr, align 8
  %3 = alloca i32, align 4
  %4 = alloca i32, align 4
  call void @llvm.lifetime.start.p0(i64 8, ptr %2) #7
  %5 = call ptr @set_up(ptr noundef @.str.44)
  store ptr %5, ptr %2, align 8, !tbaa !24
  call void @llvm.lifetime.start.p0(i64 4, ptr %3) #7
  store i32 0, ptr %3, align 4, !tbaa !26
  %6 = load ptr, ptr %2, align 8, !tbaa !24
  %7 = icmp eq ptr %6, null
  br i1 %7, label %8, label %9

8:                                                ; preds = %0
  store i32 0, ptr %1, align 4
  store i32 1, ptr %4, align 4
  br label %20

9:                                                ; preds = %0
  %10 = load ptr, ptr %2, align 8, !tbaa !24
  %11 = getelementptr inbounds nuw %struct.test_fixture, ptr %10, i32 0, i32 1
  store i32 1, ptr %11, align 8, !tbaa !27
  %12 = load ptr, ptr %2, align 8, !tbaa !24
  %13 = icmp ne ptr %12, null
  br i1 %13, label %14, label %18

14:                                               ; preds = %9
  %15 = load ptr, ptr %2, align 8, !tbaa !24
  %16 = call i32 @execute_verify_popo_test(ptr noundef %15)
  store i32 %16, ptr %3, align 4, !tbaa !26
  %17 = load ptr, ptr %2, align 8, !tbaa !24
  call void @tear_down(ptr noundef %17)
  br label %18

18:                                               ; preds = %14, %9
  %19 = load i32, ptr %3, align 4, !tbaa !26
  store i32 %19, ptr %1, align 4
  store i32 1, ptr %4, align 4
  br label %20

20:                                               ; preds = %18, %8
  call void @llvm.lifetime.end.p0(i64 4, ptr %3) #7
  call void @llvm.lifetime.end.p0(i64 8, ptr %2) #7
  %21 = load i32, ptr %1, align 4
  ret i32 %21
}