; Function Attrs: nounwind uwtable
define internal i32 @test_verify_popo() #0 {
  %1 = tail call fastcc ptr @set_up(ptr noundef nonnull @.str.44)
  %2 = icmp eq ptr %1, null
  br i1 %2, label %10, label %3

3:                                                ; preds = %0
  %4 = getelementptr inbounds nuw i8, ptr %1, i64 8
  store i32 1, ptr %4, align 8, !tbaa !24
  %5 = tail call fastcc i32 @execute_verify_popo_test(ptr noundef %1)
  %6 = getelementptr inbounds nuw i8, ptr %1, i64 24
  %7 = load ptr, ptr %6, align 8, !tbaa !27
  tail call void @OSSL_CMP_MSG_free(ptr noundef %7) #7
  %8 = getelementptr inbounds nuw i8, ptr %1, i64 16
  %9 = load ptr, ptr %8, align 8, !tbaa !28
  tail call void @OSSL_CMP_CTX_free(ptr noundef %9) #7
  tail call void @CRYPTO_free(ptr noundef nonnull %1, ptr noundef nonnull @.str.14, i32 noundef 47) #7
  br label %10

10:                                               ; preds = %0, %3
  %.06 = phi i32 [ %5, %3 ], [ 0, %0 ]
  ret i32 %.06
}